target datalayout = "e-m:e-p270:32:32-p271:32:32-p272:64:64-i64:64-i128:128-f80:128-n8:16:32:64-S128"
target triple = "x86_64-pc-linux-gnu"

%struct._zend_executor_globals = type { %struct._zval_struct, %struct._zval_struct, [32 x ptr], ptr, ptr, %struct._zend_array, %struct._zend_array, ptr, i32, i32, ptr, ptr, ptr, ptr, ptr, ptr, i64, ptr, ptr, i32, i32, i64, i32, i32, i32, i8, i8, %struct.zend_atomic_bool_s, %struct.zend_atomic_bool_s, ptr, i64, ptr, ptr, %struct._zend_array, %struct._zend_array, i32, i8, %struct._zval_struct, %struct._zval_struct, %struct._zend_stack, %struct._zend_stack, %struct._zend_stack, ptr, i32, i32, i64, ptr, ptr, ptr, %struct._zend_objects_store, ptr, ptr, ptr, [3 x %struct._zend_op], ptr, i8, i8, i64, i32, i32, ptr, [16 x %struct._HashTableIterator], ptr, %union._zend_function, %struct._zend_op, %struct._zend_array, i64, %struct.zend_get_gc_buffer, ptr, ptr, ptr, i64, i8, i32, ptr, ptr, i64, %struct._zend_call_stack, i64, i64, [6 x ptr] }
%struct.zend_atomic_bool_s = type { i8 }
%struct._zval_struct = type { %union._zend_value, %union.anon, %union.anon.2 }
%union._zend_value = type { i64 }
%union.anon = type { i32 }
%union.anon.2 = type { i32 }
%struct._zend_stack = type { i32, i32, i32, ptr }
%struct._zend_objects_store = type { ptr, i32, i32, i32 }
%struct._HashTableIterator = type { ptr, i32, i32 }
%union._zend_function = type { %struct._zend_op_array }
%struct._zend_op_array = type { i8, [3 x i8], i32, ptr, ptr, ptr, i32, i32, ptr, ptr, ptr, ptr, i32, i32, i32, i32, ptr, ptr, ptr, ptr, ptr, i32, i32, ptr, ptr, ptr, i32, i32, i32, i32, ptr, ptr, [6 x ptr] }
%struct._zend_op = type { ptr, %union._znode_op, %union._znode_op, %union._znode_op, i32, i32, i8, i8, i8, i8 }
%union._znode_op = type { i32 }
%struct._zend_array = type { %struct._zend_refcounted_h, %union.anon.4, i32, %union.anon.6, i32, i32, i32, i32, i64, ptr }
%struct._zend_refcounted_h = type { i32, %union.anon.3 }
%union.anon.3 = type { i32 }
%union.anon.4 = type { i32 }
%union.anon.6 = type { ptr }
%struct.zend_get_gc_buffer = type { ptr, ptr, ptr }
%struct._zend_call_stack = type { ptr, i64 }
%struct._zend_execute_data = type { ptr, ptr, ptr, ptr, %struct._zval_struct, ptr, ptr, ptr, ptr }
%struct._dom_object = type { ptr, ptr, ptr, %struct._zend_object }
%struct._zend_object = type { %struct._zend_refcounted_h, i32, ptr, ptr, ptr, [1 x %struct._zval_struct] }
%struct._zend_string = type { %struct._zend_refcounted_h, i64, i64, [1 x i8] }
%struct._dom_output_ctx = type { ptr, ptr, ptr, ptr, ptr, ptr, ptr, ptr }
%struct._zend_class_entry = type { i8, ptr, %union.anon.9, i32, i32, i32, i32, ptr, ptr, ptr, %struct._zend_array, %struct._zend_array, %struct._zend_array, ptr, ptr, ptr, ptr, ptr, ptr, ptr, ptr, ptr, ptr, ptr, ptr, ptr, ptr, ptr, ptr, ptr, ptr, ptr, %union.anon.10, ptr, ptr, ptr, ptr, i32, i32, %union.anon.11, ptr, ptr, ptr, ptr, i32, ptr, ptr, %union.anon.12 }
%union.anon.9 = type { ptr }
%union.anon.10 = type { ptr }
%union.anon.11 = type { ptr }
%union.anon.12 = type { %struct.anon.13 }
%struct.anon.13 = type { ptr, i32, i32 }
%struct._php_libxml_node_ptr = type { ptr, i32, ptr }

@executor_globals = external global %struct._zend_executor_globals, align 8
@.str.13 = private unnamed_addr constant [2 x i8] c"p\00", align 1
@.str.14 = private unnamed_addr constant [18 x i8] c"must not be empty\00", align 1
@.str.15 = private unnamed_addr constant [3 x i8] c"wb\00", align 1
@.str.16 = private unnamed_addr constant [18 x i8] c"Couldn't fetch %s\00", align 1

; Function Attrs: nounwind uwtable
define internal ptr @php_dom_obj_from_obj(ptr noundef %0) #0 {
  %2 = alloca ptr, align 8
  store ptr %0, ptr %2, align 8
  %3 = load ptr, ptr %2, align 8
  %4 = getelementptr inbounds i8, ptr %3, i64 -24
  ret ptr %4
}

; Function Attrs: nounwind uwtable
define hidden void @zim_DOM_HTMLDocument_saveHTMLFile(ptr noundef %0, ptr noundef %1) #0 {
  %3 = alloca ptr, align 8
  %4 = alloca ptr, align 8
  %5 = alloca ptr, align 8
  %6 = alloca ptr, align 8
  %7 = alloca i64, align 8
  %8 = alloca ptr, align 8
  %9 = alloca ptr, align 8
  %10 = alloca ptr, align 8
  %11 = alloca %struct._dom_output_ctx, align 8
  %12 = alloca i64, align 8
  %13 = alloca ptr, align 8
  store ptr %0, ptr %3, align 8
  store ptr %1, ptr %4, align 8
  %14 = load ptr, ptr %3, align 8
  %15 = getelementptr inbounds %struct._zend_execute_data, ptr %14, i32 0, i32 4
  store ptr %15, ptr %5, align 8
  %16 = load ptr, ptr %3, align 8
  %17 = getelementptr inbounds %struct._zend_execute_data, ptr %16, i32 0, i32 4
  %18 = getelementptr inbounds %struct._zval_struct, ptr %17, i32 0, i32 2
  %19 = load i32, ptr %18, align 4
  %20 = call i32 (i32, ptr, ...) @zend_parse_parameters(i32 noundef %19, ptr noundef @.str.13, ptr noundef %9, ptr noundef %7)
  %21 = icmp eq i32 %20, -1
  br i1 %21, label %22, label %27

22:                                               ; preds = %2
  br label %23

23:                                               ; preds = %22
  %24 = load ptr, ptr getelementptr inbounds (%struct._zend_executor_globals, ptr @executor_globals, i32 0, i32 50), align 8
  %25 = icmp ne ptr %24, null
  call void @llvm.assume(i1 %25)
  br label %116

26:                                               ; No predecessors!
  br label %27

27:                                               ; preds = %26, %2
  %28 = load i64, ptr %7, align 8
  %29 = icmp eq i64 %28, 0
  br i1 %29, label %30, label %35

30:                                               ; preds = %27
  call void (i32, ptr, ...) @zend_argument_value_error(i32 noundef 1, ptr noundef @.str.14)
  br label %31

31:                                               ; preds = %30
  %32 = load ptr, ptr getelementptr inbounds (%struct._zend_executor_globals, ptr @executor_globals, i32 0, i32 50), align 8
  %33 = icmp ne ptr %32, null
  call void @llvm.assume(i1 %33)
  br label %116

34:                                               ; No predecessors!
  br label %35

35:                                               ; preds = %34, %27
  %36 = load ptr, ptr %9, align 8
  %37 = call ptr @php_libxml_get_stream_context()
  %38 = call ptr @_php_stream_open_wrapper_ex(ptr noundef %36, ptr noundef @.str.15, i32 noundef 8, ptr noundef null, ptr noundef %37)
  store ptr %38, ptr %10, align 8
  %39 = load ptr, ptr %10, align 8
  %40 = icmp ne ptr %39, null
  br i1 %40, label %48, label %41

41:                                               ; preds = %35
  br label %42

42:                                               ; preds = %41
  br label %43

43:                                               ; preds = %42
  %44 = load ptr, ptr %4, align 8
  %45 = getelementptr inbounds %struct._zval_struct, ptr %44, i32 0, i32 1
  store i32 2, ptr %45, align 8
  br label %46

46:                                               ; preds = %43
  br label %116

47:                                               ; No predecessors!
  br label %48

48:                                               ; preds = %47, %35
  %49 = load ptr, ptr %5, align 8
  %50 = getelementptr inbounds %struct._zval_struct, ptr %49, i32 0, i32 0
  %51 = load ptr, ptr %50, align 8
  %52 = call ptr @php_dom_obj_from_obj(ptr noundef %51)
  store ptr %52, ptr %8, align 8
  %53 = load ptr, ptr %8, align 8
  %54 = getelementptr inbounds %struct._dom_object, ptr %53, i32 0, i32 0
  %55 = load ptr, ptr %54, align 8
  %56 = icmp eq ptr %55, null
  %57 = xor i1 %56, true
  %58 = xor i1 %57, true
  %59 = zext i1 %58 to i32
  %60 = sext i32 %59 to i64
  %61 = icmp ne i64 %60, 0
  br i1 %61, label %62, label %75

62:                                               ; preds = %48
  %63 = load ptr, ptr %8, align 8
  %64 = getelementptr inbounds %struct._dom_object, ptr %63, i32 0, i32 3
  %65 = getelementptr inbounds %struct._zend_object, ptr %64, i32 0, i32 2
  %66 = load ptr, ptr %65, align 8
  %67 = getelementptr inbounds %struct._zend_class_entry, ptr %66, i32 0, i32 1
  %68 = load ptr, ptr %67, align 8
  %69 = getelementptr inbounds %struct._zend_string, ptr %68, i32 0, i32 3
  %70 = getelementptr inbounds [1 x i8], ptr %69, i64 0, i64 0
  call void (ptr, ptr, ...) @zend_throw_error(ptr noundef null, ptr noundef @.str.16, ptr noundef %70)
  br label %71

71:                                               ; preds = %62
  %72 = load ptr, ptr getelementptr inbounds (%struct._zend_executor_globals, ptr @executor_globals, i32 0, i32 50), align 8
  %73 = icmp ne ptr %72, null
  call void @llvm.assume(i1 %73)
  br label %116

74:                                               ; No predecessors!
  br label %75

75:                                               ; preds = %74, %48
  %76 = load ptr, ptr %8, align 8
  %77 = getelementptr inbounds %struct._dom_object, ptr %76, i32 0, i32 0
  %78 = load ptr, ptr %77, align 8
  %79 = getelementptr inbounds %struct._php_libxml_node_ptr, ptr %78, i32 0, i32 0
  %80 = load ptr, ptr %79, align 8
  store ptr %80, ptr %6, align 8
  %81 = load ptr, ptr %10, align 8
  %82 = getelementptr inbounds %struct._dom_output_ctx, ptr %11, i32 0, i32 6
  store ptr %81, ptr %82, align 8
  %83 = getelementptr inbounds %struct._dom_output_ctx, ptr %11, i32 0, i32 7
  store ptr @dom_write_output_stream, ptr %83, align 8
  %84 = load ptr, ptr %6, align 8
  %85 = load ptr, ptr %6, align 8
  %86 = call i32 @dom_common_save(ptr noundef %11, ptr noundef %84, ptr noundef %85)
  %87 = icmp ne i32 %86, 0
  %88 = xor i1 %87, true
  %89 = xor i1 %88, true
  %90 = zext i1 %89 to i32
  %91 = sext i32 %90 to i64
  %92 = icmp ne i64 %91, 0
  br i1 %92, label %93, label %102

93:                                               ; preds = %75
  %94 = load ptr, ptr %10, align 8
  %95 = call i32 @_php_stream_free(ptr noundef %94, i32 noundef 3)
  br label %96

96:                                               ; preds = %93
  br label %97

97:                                               ; preds = %96
  %98 = load ptr, ptr %4, align 8
  %99 = getelementptr inbounds %struct._zval_struct, ptr %98, i32 0, i32 1
  store i32 2, ptr %99, align 8
  br label %100

100:                                              ; preds = %97
  br label %116

101:                                              ; No predecessors!
  br label %102

102:                                              ; preds = %101, %75
  %103 = load ptr, ptr %10, align 8
  %104 = call i64 @_php_stream_tell(ptr noundef %103)
  store i64 %104, ptr %12, align 8
  %105 = load ptr, ptr %10, align 8
  %106 = call i32 @_php_stream_free(ptr noundef %105, i32 noundef 3)
  br label %107

107:                                              ; preds = %102
  br label %108

108:                                              ; preds = %107
  %109 = load ptr, ptr %4, align 8
  store ptr %109, ptr %13, align 8
  %110 = load i64, ptr %12, align 8
  %111 = load ptr, ptr %13, align 8
  %112 = getelementptr inbounds %struct._zval_struct, ptr %111, i32 0, i32 0
  store i64 %110, ptr %112, align 8
  %113 = load ptr, ptr %13, align 8
  %114 = getelementptr inbounds %struct._zval_struct, ptr %113, i32 0, i32 1
  store i32 4, ptr %114, align 8
  br label %115

115:                                              ; preds = %108
  br label %116

116:                                              ; preds = %115, %100, %71, %46, %31, %23
  ret void
}