; Function Attrs: nounwind uwtable
define hidden void @zim_DOM_HTMLDocument_saveHTMLFile(ptr nocapture noundef readonly %0, ptr nocapture noundef writeonly %1) local_unnamed_addr #0 {
  %3 = alloca i64, align 8
  %4 = alloca ptr, align 8
  %5 = alloca %struct._dom_output_ctx, align 8
  %6 = getelementptr inbounds i8, ptr %0, i64 32
  %7 = getelementptr inbounds i8, ptr %0, i64 44
  %8 = load i32, ptr %7, align 4
  %9 = call i32 (i32, ptr, ...) @zend_parse_parameters(i32 noundef %8, ptr noundef nonnull @.str.13, ptr noundef nonnull %4, ptr noundef nonnull %3) #11
  %10 = icmp eq i32 %9, -1
  br i1 %10, label %11, label %14

11:                                               ; preds = %2
  %12 = load ptr, ptr getelementptr inbounds (%struct._zend_executor_globals, ptr @executor_globals, i64 0, i32 50), align 8
  %13 = icmp ne ptr %12, null
  call void @llvm.assume(i1 %13)
  br label %52

14:                                               ; preds = %2
  %15 = load i64, ptr %3, align 8
  %16 = icmp eq i64 %15, 0
  br i1 %16, label %17, label %20

17:                                               ; preds = %14
  call void (i32, ptr, ...) @zend_argument_value_error(i32 noundef 1, ptr noundef nonnull @.str.14) #11
  %18 = load ptr, ptr getelementptr inbounds (%struct._zend_executor_globals, ptr @executor_globals, i64 0, i32 50), align 8
  %19 = icmp ne ptr %18, null
  call void @llvm.assume(i1 %19)
  br label %52

20:                                               ; preds = %14
  %21 = load ptr, ptr %4, align 8
  %22 = call ptr @php_libxml_get_stream_context() #11
  %23 = call ptr @_php_stream_open_wrapper_ex(ptr noundef %21, ptr noundef nonnull @.str.15, i32 noundef 8, ptr noundef null, ptr noundef %22) #11
  %.not = icmp eq ptr %23, null
  br i1 %.not, label %24, label %26

24:                                               ; preds = %20
  %25 = getelementptr inbounds i8, ptr %1, i64 8
  store i32 2, ptr %25, align 8
  br label %52

26:                                               ; preds = %20
  %27 = load ptr, ptr %6, align 8
  %28 = getelementptr inbounds i8, ptr %27, i64 -24
  %29 = load ptr, ptr %28, align 8
  %30 = icmp eq ptr %29, null
  br i1 %30, label %31, label %39

31:                                               ; preds = %26
  %32 = getelementptr inbounds i8, ptr %27, i64 16
  %33 = load ptr, ptr %32, align 8
  %34 = getelementptr inbounds i8, ptr %33, i64 8
  %35 = load ptr, ptr %34, align 8
  %36 = getelementptr inbounds i8, ptr %35, i64 24
  call void (ptr, ptr, ...) @zend_throw_error(ptr noundef null, ptr noundef nonnull @.str.16, ptr noundef nonnull %36) #11
  %37 = load ptr, ptr getelementptr inbounds (%struct._zend_executor_globals, ptr @executor_globals, i64 0, i32 50), align 8
  %38 = icmp ne ptr %37, null
  call void @llvm.assume(i1 %38)
  br label %52

39:                                               ; preds = %26
  %40 = load ptr, ptr %29, align 8
  %41 = getelementptr inbounds i8, ptr %5, i64 48
  store ptr %23, ptr %41, align 8
  %42 = getelementptr inbounds i8, ptr %5, i64 56
  store ptr @dom_write_output_stream, ptr %42, align 8
  %43 = getelementptr i8, ptr %40, i64 112
  %.val = load ptr, ptr %43, align 8
  %44 = call fastcc i32 @dom_common_save(ptr noundef nonnull %5, ptr %.val, ptr noundef %40)
  %.not19 = icmp eq i32 %44, 0
  br i1 %.not19, label %48, label %45

45:                                               ; preds = %39
  %46 = call i32 @_php_stream_free(ptr noundef nonnull %23, i32 noundef 3) #11
  %47 = getelementptr inbounds i8, ptr %1, i64 8
  store i32 2, ptr %47, align 8
  br label %52

48:                                               ; preds = %39
  %49 = call i64 @_php_stream_tell(ptr noundef nonnull %23) #11
  %50 = call i32 @_php_stream_free(ptr noundef nonnull %23, i32 noundef 3) #11
  store i64 %49, ptr %1, align 8
  %51 = getelementptr inbounds i8, ptr %1, i64 8
  store i32 4, ptr %51, align 8
  br label %52

52:                                               ; preds = %48, %45, %31, %24, %17, %11
  ret void
}